; Function Attrs: nounwind uwtable
define internal fastcc void @SetInitialProfile(ptr noundef readonly captures(none) %0, ptr noundef %1, ptr noundef %2, ptr noundef %3) unnamed_addr #0 {
  %5 = load i64, ptr %0, align 8, !tbaa !13
  %6 = tail call ptr @N_VGetArrayPointer(ptr noundef %1) #11
  %7 = tail call ptr @N_VGetArrayPointer(ptr noundef %2) #11
  %8 = add nsw i64 %5, -1
  %9 = icmp sgt i64 %5, 0
  br i1 %9, label %.lr.ph58, label %._crit_edge59

.lr.ph58:                                         ; preds = %4
  %10 = getelementptr inbounds nuw i8, ptr %0, i64 8
  br label %.lr.ph.us

.lr.ph.us:                                        ; preds = %._crit_edge.us, %.lr.ph58
  %.04956.us = phi i64 [ 0, %.lr.ph58 ], [ %28, %._crit_edge.us ]
  %11 = load double, ptr %10, align 8, !tbaa !18
  %12 = uitofp nneg i64 %.04956.us to double
  %13 = fmul double %11, %12
  %14 = mul nuw nsw i64 %.04956.us, %5
  %15 = fsub double 1.000000e+00, %13
  %16 = getelementptr double, ptr %6, i64 %14
  br label %17

17:                                               ; preds = %.lr.ph.us, %17
  %.055.us = phi i64 [ 0, %.lr.ph.us ], [ %27, %17 ]
  %18 = load double, ptr %10, align 8, !tbaa !18
  %19 = uitofp nneg i64 %.055.us to double
  %20 = fmul double %18, %19
  %21 = fmul double %20, 1.600000e+01
  %22 = fsub double 1.000000e+00, %20
  %23 = fmul double %21, %22
  %24 = fmul double %13, %23
  %25 = fmul double %15, %24
  %26 = getelementptr double, ptr %16, i64 %.055.us
  store double %25, ptr %26, align 8, !tbaa !22
  %27 = add nuw nsw i64 %.055.us, 1
  %exitcond.not = icmp eq i64 %27, %5
  br i1 %exitcond.not, label %._crit_edge.us, label %17

._crit_edge.us:                                   ; preds = %17
  %28 = add nuw nsw i64 %.04956.us, 1
  %exitcond74.not = icmp eq i64 %28, %5
  br i1 %exitcond74.not, label %._crit_edge59, label %.lr.ph.us

._crit_edge59:                                    ; preds = %._crit_edge.us, %4
  tail call void @N_VConst(double noundef 0.000000e+00, ptr noundef %2) #11
  %29 = tail call ptr @N_VGetArrayPointer(ptr noundef %1) #11
  %30 = tail call ptr @N_VGetArrayPointer(ptr noundef %2) #11
  %31 = tail call ptr @N_VGetArrayPointer(ptr noundef %3) #11
  %32 = getelementptr inbounds nuw i8, ptr %0, i64 16
  %33 = load double, ptr %32, align 8, !tbaa !19
  %34 = load i64, ptr %0, align 8, !tbaa !13
  tail call void @N_VScale(double noundef 1.000000e+00, ptr noundef %1, ptr noundef %3) #11
  %35 = icmp sgt i64 %34, 2
  %36 = fneg double %33
  br i1 %35, label %.lr.ph.us.preheader.i, label %resHeat.exit

.lr.ph.us.preheader.i:                            ; preds = %._crit_edge59
  %37 = add nsw i64 %34, -2
  br label %.lr.ph.us.i

.lr.ph.us.i:                                      ; preds = %._crit_edge.us.i, %.lr.ph.us.preheader.i
  %.03739.us.i = phi i64 [ %62, %._crit_edge.us.i ], [ 1, %.lr.ph.us.preheader.i ]
  %38 = mul nuw nsw i64 %.03739.us.i, %34
  br label %39

39:                                               ; preds = %39, %.lr.ph.us.i
  %.038.us.i = phi i64 [ 1, %.lr.ph.us.i ], [ %61, %39 ]
  %40 = add nuw nsw i64 %.038.us.i, %38
  %41 = getelementptr double, ptr %29, i64 %40
  %42 = getelementptr i8, ptr %41, i64 -8
  %43 = load double, ptr %42, align 8, !tbaa !22
  %44 = getelementptr i8, ptr %41, i64 8
  %45 = load double, ptr %44, align 8, !tbaa !22
  %46 = fadd double %43, %45
  %47 = load double, ptr %41, align 8, !tbaa !22
  %48 = tail call double @llvm.fmuladd.f64(double %47, double -2.000000e+00, double %46)
  %49 = sub nsw i64 %40, %34
  %50 = getelementptr inbounds double, ptr %29, i64 %49
  %51 = load double, ptr %50, align 8, !tbaa !22
  %52 = getelementptr double, ptr %41, i64 %34
  %53 = load double, ptr %52, align 8, !tbaa !22
  %54 = fadd double %51, %53
  %55 = tail call double @llvm.fmuladd.f64(double %47, double -2.000000e+00, double %54)
  %56 = getelementptr inbounds nuw double, ptr %30, i64 %40
  %57 = load double, ptr %56, align 8, !tbaa !22
  %58 = fadd double %48, %55
  %59 = tail call double @llvm.fmuladd.f64(double %36, double %58, double %57)
  %60 = getelementptr inbounds nuw double, ptr %31, i64 %40
  store double %59, ptr %60, align 8, !tbaa !22
  %61 = add nuw nsw i64 %.038.us.i, 1
  %exitcond.not.i = icmp eq i64 %.038.us.i, %37
  br i1 %exitcond.not.i, label %._crit_edge.us.i, label %39

._crit_edge.us.i:                                 ; preds = %39
  %62 = add nuw nsw i64 %.03739.us.i, 1
  %exitcond43.not.i = icmp eq i64 %62, 9
  br i1 %exitcond43.not.i, label %resHeat.exit, label %.lr.ph.us.i

resHeat.exit:                                     ; preds = %._crit_edge.us.i, %._crit_edge59
  tail call void @N_VScale(double noundef -1.000000e+00, ptr noundef %3, ptr noundef %2) #11
  br i1 %9, label %.lr.ph.us66.preheader, label %._crit_edge64

.lr.ph.us66.preheader:                            ; preds = %resHeat.exit
  %63 = shl i64 %5, 3
  br label %.lr.ph.us66

.lr.ph.us66:                                      ; preds = %.lr.ph.us66.preheader, %._crit_edge.us69
  %.15062.us = phi i64 [ %75, %._crit_edge.us69 ], [ 0, %.lr.ph.us66.preheader ]
  %64 = mul i64 %63, %.15062.us
  %scevgep76 = getelementptr i8, ptr %7, i64 %64
  %65 = mul nuw nsw i64 %.15062.us, %5
  %66 = icmp eq i64 %.15062.us, 0
  %67 = getelementptr double, ptr %7, i64 %65
  br i1 %66, label %._crit_edge.us69.sink.split, label %.lr.ph.split.us68

.lr.ph.split.split.us70:                          ; preds = %.lr.ph.split.us68, %72
  %.160.us65 = phi i64 [ %73, %72 ], [ 0, %.lr.ph.split.us68 ]
  %68 = icmp eq i64 %.160.us65, 0
  %69 = icmp eq i64 %.160.us65, %8
  %or.cond54.us = or i1 %69, %68
  br i1 %or.cond54.us, label %70, label %72

70:                                               ; preds = %.lr.ph.split.split.us70
  %71 = getelementptr double, ptr %67, i64 %.160.us65
  store double 0.000000e+00, ptr %71, align 8, !tbaa !22
  br label %72

72:                                               ; preds = %70, %.lr.ph.split.split.us70
  %73 = add nuw nsw i64 %.160.us65, 1
  %exitcond75.not = icmp eq i64 %73, %5
  br i1 %exitcond75.not, label %._crit_edge.us69, label %.lr.ph.split.split.us70

.lr.ph.split.us68:                                ; preds = %.lr.ph.us66
  %74 = icmp eq i64 %.15062.us, %8
  %.fr.us = freeze i1 %74
  br i1 %.fr.us, label %._crit_edge.us69.sink.split, label %.lr.ph.split.split.us70

._crit_edge.us69.sink.split:                      ; preds = %.lr.ph.split.us68, %.lr.ph.us66
  tail call void @llvm.memset.p0.i64(ptr align 8 %scevgep76, i8 0, i64 %63, i1 false), !tbaa !22
  br label %._crit_edge.us69

._crit_edge.us69:                                 ; preds = %72, %._crit_edge.us69.sink.split
  %75 = add nuw nsw i64 %.15062.us, 1
  %exitcond77.not = icmp eq i64 %75, %5
  br i1 %exitcond77.not, label %._crit_edge64, label %.lr.ph.us66

._crit_edge64:                                    ; preds = %._crit_edge.us69, %resHeat.exit
  ret void
}